ccopy_reg
_reconstructor
p1
(cmojom.parse.ast
Mojom
p2
c__builtin__
object
p3
NtRp4
(dp5
S'import_list'
p6
g1
(cmojom.parse.ast
ImportList
p7
g3
NtRp8
(dp9
S'items'
p10
(lp11
sS'lineno'
p12
NsS'filename'
p13
NsbsS'definition_list'
p14
(lp15
g1
(cmojom.parse.ast
Struct
p16
g3
NtRp17
(dp18
S'body'
p19
g1
(cmojom.parse.ast
StructBody
p20
g3
NtRp21
(dp22
g10
(lp23
g1
(cmojom.parse.ast
StructField
p24
g3
NtRp25
(dp26
S'ordinal'
p27
NsS'default_value'
p28
NsS'mojom_name'
p29
S'path'
p30
sS'attribute_list'
p31
g1
(cmojom.parse.ast
AttributeList
p32
g3
NtRp33
(dp34
g10
(lp35
g1
(cmojom.parse.ast
Attribute
p36
g3
NtRp37
(dp38
S'value'
p39
S'file_path_is_string16'
p40
sg12
I16
sS'key'
p41
S'EnableIf'
p42
sg13
S'../../../vendor/chromium/mojo/public/mojom/base/file_path.mojom'
p43
sbasg12
I16
sg13
g43
sbsg13
NsS'typename'
p44
S'uint16[]'
p45
sg12
Nsbasg12
Nsg13
Nsbsg31
Nsg12
Nsg29
S'FilePath'
p46
sg13
Nsbasg12
NsS'module'
p47
g1
(cmojom.parse.ast
Module
p48
g3
NtRp49
(dp50
S'mojom_namespace'
p51
(S'IDENTIFIER'
p52
S'mojo_base.mojom'
tp53
sg12
I5
sg31
Nsg13
g43
sbsg13
Nsb.